; Function Attrs: nofree nounwind uwtable
define noundef i32 @Gia_ManResubPrint(ptr noundef readonly captures(none) %0, i32 noundef %1) local_unnamed_addr #3 {
  %3 = getelementptr i8, ptr %0, i64 4
  %.val = load i32, ptr %3, align 4, !tbaa !28
  %4 = icmp eq i32 %.val, 0
  br i1 %4, label %5, label %7

5:                                                ; preds = %2
  %6 = tail call i32 (ptr, ...) @printf(ptr noundef nonnull dereferenceable(1) @.str.15)
  br label %Gia_ManResubPrintLit.exit

7:                                                ; preds = %2
  %8 = getelementptr i8, ptr %0, i64 8
  %.val9 = load ptr, ptr %8, align 8, !tbaa !30
  %9 = sext i32 %.val to i64
  %10 = getelementptr i32, ptr %.val9, i64 %9
  %11 = getelementptr i8, ptr %10, i64 -4
  %12 = load i32, ptr %11, align 4, !tbaa !31
  switch i32 %12, label %17 [
    i32 0, label %13
    i32 1, label %15
  ]

13:                                               ; preds = %7
  %14 = tail call i32 (ptr, ...) @printf(ptr noundef nonnull dereferenceable(1) @.str.16)
  br label %Gia_ManResubPrintLit.exit

15:                                               ; preds = %7
  %16 = tail call i32 (ptr, ...) @printf(ptr noundef nonnull dereferenceable(1) @.str.17)
  br label %Gia_ManResubPrintLit.exit

17:                                               ; preds = %7
  %18 = ashr i32 %12, 1
  %19 = icmp slt i32 %18, %1
  %20 = and i32 %12, 1
  br i1 %19, label %21, label %30

21:                                               ; preds = %17
  %22 = icmp slt i32 %1, 26
  %.not11.i = icmp eq i32 %20, 0
  %23 = select i1 %.not11.i, ptr @.str.13, ptr @.str.8
  br i1 %22, label %24, label %27

24:                                               ; preds = %21
  %25 = add nsw i32 %18, 95
  %26 = tail call i32 (ptr, ...) @printf(ptr noundef nonnull dereferenceable(1) @.str.12, ptr noundef nonnull %23, i32 noundef %25)
  br label %Gia_ManResubPrintLit.exit

27:                                               ; preds = %21
  %28 = add nsw i32 %18, -2
  %29 = tail call i32 (ptr, ...) @printf(ptr noundef nonnull dereferenceable(1) @.str.14, ptr noundef nonnull %23, i32 noundef %28)
  br label %Gia_ManResubPrintLit.exit

30:                                               ; preds = %17
  %31 = sub nsw i32 %18, %1
  tail call void @Gia_ManResubPrintNode(ptr noundef nonnull readonly %0, i32 noundef %1, i32 noundef %31, i32 noundef %20) #34
  br label %Gia_ManResubPrintLit.exit

Gia_ManResubPrintLit.exit:                        ; preds = %30, %27, %24, %15, %13, %5
  %.0 = phi i32 [ %6, %5 ], [ %14, %13 ], [ %16, %15 ], [ 0, %24 ], [ 0, %27 ], [ 0, %30 ]
  ret i32 %.0
}